target datalayout = "e-m:e-p270:32:32-p271:32:32-p272:64:64-i64:64-i128:128-f80:128-n8:16:32:64-S128"
target triple = "x86_64-unknown-linux-gnu"

%struct.z_stream_s = type { ptr, i32, i64, ptr, i32, i64, ptr, ptr, ptr, ptr, ptr, i32, i64, i64 }
%"class.google::protobuf::io::GzipOutputStream" = type { %"class.google::protobuf::io::ZeroCopyOutputStream", ptr, ptr, i32, %struct.z_stream_s, i32, ptr, i64 }
%"class.google::protobuf::io::ZeroCopyOutputStream" = type { ptr }

; Function Attrs: mustprogress nounwind uwtable
define linkonce_odr hidden void @_ZN6google8protobuf2io20ZeroCopyOutputStreamD2Ev(ptr noundef nonnull align 8 dereferenceable(8) %this) unnamed_addr #5 comdat align 2 {
entry:
  %this.addr = alloca ptr, align 8
  store ptr %this, ptr %this.addr, align 8
  ret void
}

; Function Attrs: mustprogress nounwind uwtable
define linkonce_odr hidden void @_ZN6google8protobuf8internal11SizedDeleteEPvm(ptr noundef %p, i64 noundef %size) #5 comdat {
entry:
  %p.addr = alloca ptr, align 8
  %size.addr = alloca i64, align 8
  store ptr %p, ptr %p.addr, align 8
  store i64 %size, ptr %size.addr, align 8
  %0 = load ptr, ptr %p.addr, align 8
  call void @_ZdlPv(ptr noundef %0) #3
  ret void
}

; Function Attrs: mustprogress uwtable
define noundef zeroext i1 @_ZN6google8protobuf2io16GzipOutputStream5CloseEv(ptr noundef nonnull align 8 dereferenceable(168) %this) #4 align 2 {
entry:
  %retval = alloca i1, align 1
  %this.addr = alloca ptr, align 8
  %ok = alloca i8, align 1
  store ptr %this, ptr %this.addr, align 8
  %this1 = load ptr, ptr %this.addr, align 8
  %zerror_ = getelementptr inbounds %"class.google::protobuf::io::GzipOutputStream", ptr %this1, i32 0, i32 5
  %0 = load i32, ptr %zerror_, align 8
  %cmp = icmp ne i32 %0, 0
  br i1 %cmp, label %land.lhs.true, label %if.end

land.lhs.true:                                    ; preds = %entry
  %zerror_2 = getelementptr inbounds %"class.google::protobuf::io::GzipOutputStream", ptr %this1, i32 0, i32 5
  %1 = load i32, ptr %zerror_2, align 8
  %cmp3 = icmp ne i32 %1, -5
  br i1 %cmp3, label %if.then, label %if.end

if.then:                                          ; preds = %land.lhs.true
  store i1 false, ptr %retval, align 1
  br label %return

if.end:                                           ; preds = %land.lhs.true, %entry
  br label %do.body

do.body:                                          ; preds = %do.cond, %if.end
  %call = call noundef i32 @_ZN6google8protobuf2io16GzipOutputStream7DeflateEi(ptr noundef nonnull align 8 dereferenceable(168) %this1, i32 noundef 4)
  %zerror_4 = getelementptr inbounds %"class.google::protobuf::io::GzipOutputStream", ptr %this1, i32 0, i32 5
  store i32 %call, ptr %zerror_4, align 8
  br label %do.cond

do.cond:                                          ; preds = %do.body
  %zerror_5 = getelementptr inbounds %"class.google::protobuf::io::GzipOutputStream", ptr %this1, i32 0, i32 5
  %2 = load i32, ptr %zerror_5, align 8
  %cmp6 = icmp eq i32 %2, 0
  br i1 %cmp6, label %do.body, label %do.end, !llvm.loop !6

do.end:                                           ; preds = %do.cond
  %zcontext_ = getelementptr inbounds %"class.google::protobuf::io::GzipOutputStream", ptr %this1, i32 0, i32 4
  %call7 = call i32 @deflateEnd(ptr noundef %zcontext_)
  %zerror_8 = getelementptr inbounds %"class.google::protobuf::io::GzipOutputStream", ptr %this1, i32 0, i32 5
  store i32 %call7, ptr %zerror_8, align 8
  %zerror_9 = getelementptr inbounds %"class.google::protobuf::io::GzipOutputStream", ptr %this1, i32 0, i32 5
  %3 = load i32, ptr %zerror_9, align 8
  %cmp10 = icmp eq i32 %3, 0
  %frombool = zext i1 %cmp10 to i8
  store i8 %frombool, ptr %ok, align 1
  %zerror_11 = getelementptr inbounds %"class.google::protobuf::io::GzipOutputStream", ptr %this1, i32 0, i32 5
  store i32 1, ptr %zerror_11, align 8
  %4 = load i8, ptr %ok, align 1
  %tobool = trunc i8 %4 to i1
  store i1 %tobool, ptr %retval, align 1
  br label %return

return:                                           ; preds = %do.end, %if.then
  %5 = load i1, ptr %retval, align 1
  ret i1 %5
}

; Function Attrs: mustprogress nounwind uwtable
define void @_ZN6google8protobuf2io16GzipOutputStreamD2Ev(ptr noundef nonnull align 8 dereferenceable(168) %this) unnamed_addr #5 align 2 personality ptr @__gxx_personality_v0 {
entry:
  %this.addr = alloca ptr, align 8
  store ptr %this, ptr %this.addr, align 8
  %this1 = load ptr, ptr %this.addr, align 8
  %call = invoke noundef zeroext i1 @_ZN6google8protobuf2io16GzipOutputStream5CloseEv(ptr noundef nonnull align 8 dereferenceable(168) %this1)
          to label %invoke.cont unwind label %terminate.lpad

invoke.cont:                                      ; preds = %entry
  %input_buffer_ = getelementptr inbounds %"class.google::protobuf::io::GzipOutputStream", ptr %this1, i32 0, i32 6
  %0 = load ptr, ptr %input_buffer_, align 8
  %input_buffer_length_ = getelementptr inbounds %"class.google::protobuf::io::GzipOutputStream", ptr %this1, i32 0, i32 7
  %1 = load i64, ptr %input_buffer_length_, align 8
  invoke void @_ZN6google8protobuf8internal11SizedDeleteEPvm(ptr noundef %0, i64 noundef %1)
          to label %invoke.cont2 unwind label %terminate.lpad

invoke.cont2:                                     ; preds = %invoke.cont
  call void @_ZN6google8protobuf2io20ZeroCopyOutputStreamD2Ev(ptr noundef nonnull align 8 dereferenceable(8) %this1) #3
  ret void

terminate.lpad:                                   ; preds = %invoke.cont, %entry
  %2 = landingpad { ptr, i32 }
          catch ptr null
  %3 = extractvalue { ptr, i32 } %2, 0
  call void @__clang_call_terminate(ptr %3) #13
  unreachable
}