; Function Attrs: mustprogress nounwind uwtable
define void @_ZN6google8protobuf2io16GzipOutputStreamD2Ev(ptr noundef nonnull align 8 dereferenceable(168) %this) unnamed_addr #7 align 2 personality ptr @__gxx_personality_v0 {
entry:
  %zerror_.i = getelementptr inbounds i8, ptr %this, i64 144
  %0 = load i32, ptr %zerror_.i, align 8
  switch i32 %0, label %invoke.cont [
    i32 0, label %do.body.i.preheader
    i32 -5, label %do.body.i.preheader
  ]

do.body.i.preheader:                              ; preds = %entry, %entry
  br label %do.body.i

do.body.i:                                        ; preds = %do.body.i.preheader, %call.i.noexc
  %call.i1 = invoke noundef i32 @_ZN6google8protobuf2io16GzipOutputStream7DeflateEi(ptr noundef nonnull align 8 dereferenceable(168) %this, i32 noundef 4)
          to label %call.i.noexc unwind label %terminate.lpad.loopexit

call.i.noexc:                                     ; preds = %do.body.i
  store i32 %call.i1, ptr %zerror_.i, align 8
  %cmp6.i = icmp eq i32 %call.i1, 0
  br i1 %cmp6.i, label %do.body.i, label %do.end.i, !llvm.loop !6

do.end.i:                                         ; preds = %call.i.noexc
  %zcontext_.i = getelementptr inbounds i8, ptr %this, i64 32
  %call7.i2 = invoke i32 @deflateEnd(ptr noundef nonnull %zcontext_.i)
          to label %call7.i.noexc unwind label %terminate.lpad.loopexit.split-lp

call7.i.noexc:                                    ; preds = %do.end.i
  store i32 1, ptr %zerror_.i, align 8
  br label %invoke.cont

invoke.cont:                                      ; preds = %call7.i.noexc, %entry
  %input_buffer_ = getelementptr inbounds i8, ptr %this, i64 152
  %1 = load ptr, ptr %input_buffer_, align 8
  tail call void @_ZdlPv(ptr noundef %1) #16
  ret void

terminate.lpad.loopexit:                          ; preds = %do.body.i
  %lpad.loopexit = landingpad { ptr, i32 }
          catch ptr null
  br label %terminate.lpad

terminate.lpad.loopexit.split-lp:                 ; preds = %do.end.i
  %lpad.loopexit.split-lp = landingpad { ptr, i32 }
          catch ptr null
  br label %terminate.lpad

terminate.lpad:                                   ; preds = %terminate.lpad.loopexit.split-lp, %terminate.lpad.loopexit
  %lpad.phi = phi { ptr, i32 } [ %lpad.loopexit, %terminate.lpad.loopexit ], [ %lpad.loopexit.split-lp, %terminate.lpad.loopexit.split-lp ]
  %2 = extractvalue { ptr, i32 } %lpad.phi, 0
  tail call void @__clang_call_terminate(ptr %2) #17
  unreachable
}